-----BEGIN RSA PRIVATE KEY-----
MIIEowIBAAKCAQEAvIyT80/6si7ezwGu12bhsofX926zZ0c9PvISHnuLOXuf94Hk
lIZp5CU/a5Sk+pULoNfqsoOJVwmHdK+GFd1ozaHxjiqf9inQYg1YgTfCAvvRkFEN
OfgjJZi7Y6boj4qNvQqb7XtMEJrt4/x1aeiLQWLOmW+Rm0YqNIN8gpMI5tULCiY2
JCiwTpQ8qqLgZ6AzZVZxqeBc+utfGHfBat1Bpm2Vyefh2DhvpPJB0Ojg6TTJZ4gi
Q0UaNmw2lSHFre7ySFDy3EYpyQ6J9WSb0ltjN+Vk+09obmAwXvaA9oogskIpZCPn
U1k9Y/ujUsL1pemT1vinKpGO/759Qooy8CfPBwIDAQABAoIBAAs9ijhwJS7oMmo+
3HCE9qGRDaP3moRmr9UH02Kz1Mn5f8DeooTkOn3aZpyAQRGbPxU4qgo4Y0CoFcY0
DJdTGsNfiyoBioW/WmfuCb+yVkOdRZIH8vTowRelsk4vjh+4j9icQE15E0DOK65y
x4En1t1wCYcGKrUKCswUpqCWKWqxYGMGCdybr1XVLDdr+TFC5/4Cmy+a5uvK0bc7
TkIxPd5vEL8CIfe81t91SXMfzJc33b3HkNVX8SigNi0YSen7QZyDBOzxwJiloF8E
dhO+WXweeEVooi5obs0r1wqLm3qHYeKY47i3YnEPNXmUzYDF6CIPgxLbG6WbaqV+
KUAPkGkCgYEA8p+NXN/7VRuEV9IR7Sdrrhqj4CbGq66apbrh2v3oINFYITThAcKk
wxVWI0ptY3vjqzfTUCBvD3MIPGO53BqYwa2u/IdHsw2gC3jYWIVRA61Vo1FjFApB
SJ2T+3KnmHi++OjA84uTajWZy4YsgPVLdYFK5PUpz4PcX1yw3hvg1vMCgYEAxvHP
PZsXR0/b7j4MrwaJwAGZho5Mkd3s5gyY4c5scUA4CjuYZ4eZqYcEC6Cs6c02lWWL
5OG4dURhwzLh6pswNoQurYmyKLut2qLCUELbPzUfOitWkeo0+RRcafhX0UY7rRve
Pxe0Ud/Xr0EBMB1cE7jWxHpS8bGK9Dsbht/jFJ0CgYAjoPqJYPrvjJLqspafVOKj
NpZKHGegXounOsJf/llQOG3Qsos4TvUTENcNZ6iYq2DLi+8kHR8yDZpwA9UPVXiJ
OJAx1UvaJ24RQTXECg/Tkmi5CwKZtsfPehR5IGUsJs8kjkmHej+zoRtsn895QIxM
PShaZwY0yxBZkKsIct+ZsQKBgHDYfIsfS8cBf2jV/W/SL5Sf06vFT5112ohrINUE
t/JNUPxM7ZfcDMdidGL8EtjTtGBtpzp+5pht315PoGHpASILPEbnUg1U17qqk7nf
Emn6AeqG5qYByWZ3rCvX2Eg2pGb+5cO3+Gpwo/Ee2EOog7AUKo5sLFw4Lu92D5kj
qbTpAoGBAKez/siacPoxSzOh/9QEMsq4abMbauCeGZumeFSMHmmyhJ564thTwC8Y
SJmp0NCnmx9bGnpYtvgfFsy9Q0sCDgZLRGlwHoXzV82JgnDfQ4n+ZRe5nfnO2shm
mAhDpzU6k/XnZDLkU/2L0rlYgUfi1tiQxD8/mO0w0OjcY+khJL9K
-----END RSA PRIVATE KEY-----
Certificate:
    Data:
        Version: 3 (0x2)
        Serial Number: 12065728203692723649 (0xa77213dfd1844dc1)
    Signature Algorithm: sha1WithRSAEncryption
        Issuer: C=IE, ST=Dublin, O=staticlibs.net, OU=Development, CN=staticlibs_test_ca/emailAddress=alex@staticlibs.net
        Validity
            Not Before: Jul 12 11:43:06 2015 GMT
            Not After : Jul  9 11:43:06 2025 GMT
        Subject: C=IE, ST=Dublin, L=Dublin, O=staticlibs.net, OU=Development, CN=localhost/emailAddress=alex@staticlibs.net
        Subject Public Key Info:
            Public Key Algorithm: rsaEncryption
                Public-Key: (2048 bit)
                Modulus:
                    00:bc:8c:93:f3:4f:fa:b2:2e:de:cf:01:ae:d7:66:
                    e1:b2:87:d7:f7:6e:b3:67:47:3d:3e:f2:12:1e:7b:
                    8b:39:7b:9f:f7:81:e4:94:86:69:e4:25:3f:6b:94:
                    a4:fa:95:0b:a0:d7:ea:b2:83:89:57:09:87:74:af:
                    86:15:dd:68:cd:a1:f1:8e:2a:9f:f6:29:d0:62:0d:
                    58:81:37:c2:02:fb:d1:90:51:0d:39:f8:23:25:98:
                    bb:63:a6:e8:8f:8a:8d:bd:0a:9b:ed:7b:4c:10:9a:
                    ed:e3:fc:75:69:e8:8b:41:62:ce:99:6f:91:9b:46:
                    2a:34:83:7c:82:93:08:e6:d5:0b:0a:26:36:24:28:
                    b0:4e:94:3c:aa:a2:e0:67:a0:33:65:56:71:a9:e0:
                    5c:fa:eb:5f:18:77:c1:6a:dd:41:a6:6d:95:c9:e7:
                    e1:d8:38:6f:a4:f2:41:d0:e8:e0:e9:34:c9:67:88:
                    22:43:45:1a:36:6c:36:95:21:c5:ad:ee:f2:48:50:
                    f2:dc:46:29:c9:0e:89:f5:64:9b:d2:5b:63:37:e5:
                    64:fb:4f:68:6e:60:30:5e:f6:80:f6:8a:20:b2:42:
                    29:64:23:e7:53:59:3d:63:fb:a3:52:c2:f5:a5:e9:
                    93:d6:f8:a7:2a:91:8e:ff:be:7d:42:8a:32:f0:27:
                    cf:07
                Exponent: 65537 (0x10001)
        X509v3 extensions:
            X509v3 Basic Constraints: 
                CA:FALSE
            Netscape Comment: 
                OpenSSL Generated Certificate
            X509v3 Subject Key Identifier: 
                7F:5C:DE:B1:FF:FB:C9:A9:61:DA:08:24:03:3B:E8:A5:3A:63:05:3D
            X509v3 Authority Key Identifier: 
                keyid:4E:48:42:4C:50:2C:55:E4:0A:C0:59:2C:E8:5F:62:A3:EC:18:BA:DE

    Signature Algorithm: sha1WithRSAEncryption
         d1:85:da:79:25:19:a1:ac:6c:09:37:08:0a:27:c6:81:5a:f2:
         be:b0:c8:cf:3c:70:79:28:fa:6e:6c:9b:f3:0c:4a:e5:7e:8a:
         34:97:89:29:43:19:1a:55:e6:74:ba:13:6e:c2:42:6c:2f:d6:
         65:fd:48:7c:8e:d0:36:ae:48:50:41:6a:16:ed:9e:88:04:6f:
         39:fb:f5:ee:53:d7:5d:5e:27:15:ad:ec:41:6d:e2:34:2d:2c:
         24:b0:9f:d6:ac:42:53:48:44:4a:65:de:a7:29:93:d7:ee:58:
         6b:bc:80:4f:86:56:c4:df:e6:0c:ae:86:66:d4:fc:aa:35:07:
         19:ff:8b:1b:9e:0d:3e:56:d1:8b:51:e1:43:77:d1:76:a8:03:
         1f:06:56:f0:4d:aa:a5:5f:f8:a0:ca:49:0c:60:3a:af:cc:71:
         e9:26:0e:b6:b8:70:40:69:ed:2d:b9:96:1c:d3:7b:dc:23:19:
         77:c9:16:7f:14:7f:b5:c6:1b:b6:be:52:bb:fa:88:0f:36:e6:
         46:43:6f:2b:12:77:29:f9:86:5f:1d:29:89:a3:d8:40:78:7c:
         52:e3:40:e2:a7:b2:e5:70:75:20:c9:63:26:c0:c4:95:41:de:
         2d:bd:2a:70:2e:92:a6:66:eb:8f:45:d4:68:64:70:36:e3:f2:
         05:38:8c:c1
-----BEGIN CERTIFICATE-----
MIIEJDCCAwygAwIBAgIJAKdyE9/RhE3BMA0GCSqGSIb3DQEBBQUAMIGOMQswCQYD
VQQGEwJJRTEPMA0GA1UECAwGRHVibGluMRcwFQYDVQQKDA5zdGF0aWNsaWJzLm5l
dDEUMBIGA1UECwwLRGV2ZWxvcG1lbnQxGzAZBgNVBAMMEnN0YXRpY2xpYnNfdGVz
dF9jYTEiMCAGCSqGSIb3DQEJARYTYWxleEBzdGF0aWNsaWJzLm5ldDAeFw0xNTA3
MTIxMTQzMDZaFw0yNTA3MDkxMTQzMDZaMIGWMQswCQYDVQQGEwJJRTEPMA0GA1UE
CAwGRHVibGluMQ8wDQYDVQQHDAZEdWJsaW4xFzAVBgNVBAoMDnN0YXRpY2xpYnMu
bmV0MRQwEgYDVQQLDAtEZXZlbG9wbWVudDESMBAGA1UEAwwJbG9jYWxob3N0MSIw
IAYJKoZIhvcNAQkBFhNhbGV4QHN0YXRpY2xpYnMubmV0MIIBIjANBgkqhkiG9w0B
AQEFAAOCAQ8AMIIBCgKCAQEAvIyT80/6si7ezwGu12bhsofX926zZ0c9PvISHnuL
OXuf94HklIZp5CU/a5Sk+pULoNfqsoOJVwmHdK+GFd1ozaHxjiqf9inQYg1YgTfC
AvvRkFENOfgjJZi7Y6boj4qNvQqb7XtMEJrt4/x1aeiLQWLOmW+Rm0YqNIN8gpMI
5tULCiY2JCiwTpQ8qqLgZ6AzZVZxqeBc+utfGHfBat1Bpm2Vyefh2DhvpPJB0Ojg
6TTJZ4giQ0UaNmw2lSHFre7ySFDy3EYpyQ6J9WSb0ltjN+Vk+09obmAwXvaA9oog
skIpZCPnU1k9Y/ujUsL1pemT1vinKpGO/759Qooy8CfPBwIDAQABo3sweTAJBgNV
HRMEAjAAMCwGCWCGSAGG+EIBDQQfFh1PcGVuU1NMIEdlbmVyYXRlZCBDZXJ0aWZp
Y2F0ZTAdBgNVHQ4EFgQUf1zesf/7yalh2ggkAzvopTpjBT0wHwYDVR0jBBgwFoAU
TkhCTFAsVeQKwFks6F9io+wYut4wDQYJKoZIhvcNAQEFBQADggEBANGF2nklGaGs
bAk3CAonxoFa8r6wyM88cHko+m5sm/MMSuV+ijSXiSlDGRpV5nS6E27CQmwv1mX9
SHyO0DauSFBBahbtnogEbzn79e5T111eJxWt7EFt4jQtLCSwn9asQlNIREpl3qcp
k9fuWGu8gE+GVsTf5gyuhmbU/Ko1Bxn/ixueDT5W0YtR4UN30XaoAx8GVvBNqqVf
+KDKSQxgOq/McekmDra4cEBp7S25lhzTe9wjGXfJFn8Uf7XGG7a+Urv6iA825kZD
bysSdyn5hl8dKYmj2EB4fFLjQOKnsuVwdSDJYybAxJVB3i29KnAukqZm649F1Ghk
cDbj8gU4jME=
-----END CERTIFICATE-----
